(lp0
(dp1
Vfail
p2
L0L
sVrelease
p3
Vandroid_5.1.1
p4
sVpass
p5
L1L
sVphone_name
p6
Vbrand1_model2
p7
sVdevice
p8
V127.0.0.1:21513
p9
sa(dp10
Vfail
p11
L1L
sVpass
p12
L0L
sVphone_name
p13
Vbrand1_model2
p14
sVrelease
p15
Vandroid_5.1.1
p16
sVdevice
p17
V127.0.0.1:21503
p18
sa.