(dp0
VpackingTime
p1
V2017/12/4 13:00
p2
sVfail
p3
L0L
sVtestDate
p4
V2018-09-13 17:26:06
p5
sVtestSumDate
p6
V12\u79d2
p7
sVsum
p8
L1L
sVversionCode
p9
V40
p10
sVpass
p11
L1L
sVversionName
p12
V1.4.0
p13
s.