(dp0
VversionCode
p1
V40
p2
sVpass
p3
L1L
sVversionName
p4
V1.4.0
p5
sVtestDate
p6
V2018-09-11 17:22:04
p7
sVtestSumDate
p8
V13\u79d2
p9
sVpackingTime
p10
V2017/12/4 13:00
p11
sVsum
p12
L1L
sVfail
p13
L0L
s.