(dp0
Vpass
p1
L1L
sVversionName
p2
V1.4.0
p3
sVversionCode
p4
V40
p5
sVsum
p6
L1L
sVtestSumDate
p7
V12\u79d2
p8
sVpackingTime
p9
V2017/12/4 13:00
p10
sVfail
p11
L0L
sVtestDate
p12
V2018-09-05 16:41:58
p13
s.