(dp0
VpackingTime
p1
V2017/12/4 13:00
p2
sVtestSumDate
p3
V10\u79d2
p4
sVpass
p5
L1L
sVfail
p6
L0L
sVversionCode
p7
V40
p8
sVtestDate
p9
V2018-09-10 16:34:07
p10
sVversionName
p11
V1.4.0
p12
sVsum
p13
L1L
s.