(dp0
Vpass
p1
L1L
sVsum
p2
L1L
sVversionName
p3
V1.4.0
p4
sVpackingTime
p5
V2017/12/4 13:00
p6
sVtestDate
p7
V2018-09-10 16:59:07
p8
sVtestSumDate
p9
V12\u79d2
p10
sVfail
p11
L0L
sVversionCode
p12
V40
p13
s.