(dp0
VversionCode
p1
V40
p2
sVsum
p3
L4L
sVtestDate
p4
V2018-09-12 17:05:15
p5
sVtestSumDate
p6
V38\u79d2
p7
sVpackingTime
p8
V2017/12/4 13:00
p9
sVversionName
p10
V1.4.0
p11
sVpass
p12
L4L
sVfail
p13
L0L
s.