(dp0
VpackingTime
p1
V2017/12/4 13:00
p2
sVfail
p3
L0L
sVtestDate
p4
V2018-09-16 16:28:55
p5
sVversionCode
p6
V40
p7
sVsum
p8
L1L
sVtestSumDate
p9
V11\u79d2
p10
sVversionName
p11
V1.4.0
p12
sVpass
p13
L1L
s.