(dp0
Vpass
p1
L0L
sVtestSumDate
p2
V1\u79d2
p3
sVtestDate
p4
V2018-09-07 16:33:31
p5
sVfail
p6
L0L
sVversionCode
p7
V40
p8
sVversionName
p9
V1.4.0
p10
sVpackingTime
p11
V2017/12/4 13:00
p12
sVsum
p13
L0L
s.